; ModuleID = 'source-C-CXX/26/2076.c'
source_filename = "source-C-CXX/26/2076.c"
target datalayout = "e-m:e-p270:32:32-p271:32:32-p272:64:64-i64:64-f80:128-n8:16:32:64-S128"
target triple = "x86_64-pc-linux-gnu"

@.str = private unnamed_addr constant [3 x i8] c"%d\00", align 1
@.str.1 = private unnamed_addr constant [12 x i8] c"%lf %lf %lf\00", align 1
@.str.2 = private unnamed_addr constant [29 x i8] c"x1=%.5f+%.5fi;x2=%.5f-%.5fi\0A\00", align 1
@.str.3 = private unnamed_addr constant [12 x i8] c"x1=x2=%.5f\0A\00", align 1
@.str.4 = private unnamed_addr constant [17 x i8] c"x1=%.5f;x2=%.5f\0A\00", align 1

; Function Attrs: nofree nounwind sspstrong uwtable
define dso_local void @main() local_unnamed_addr #0 {
  %1 = alloca i32, align 4
  %2 = alloca double, align 8
  %3 = alloca double, align 8
  %4 = alloca double, align 8
  %5 = bitcast i32* %1 to i8*
  call void @llvm.lifetime.start.p0i8(i64 4, i8* nonnull %5) #4
  %6 = bitcast double* %2 to i8*
  call void @llvm.lifetime.start.p0i8(i64 8, i8* nonnull %6) #4
  %7 = bitcast double* %3 to i8*
  call void @llvm.lifetime.start.p0i8(i64 8, i8* nonnull %7) #4
  %8 = bitcast double* %4 to i8*
  call void @llvm.lifetime.start.p0i8(i64 8, i8* nonnull %8) #4
  %9 = call i32 (i8*, ...) @__isoc99_scanf(i8* getelementptr inbounds ([3 x i8], [3 x i8]* @.str, i64 0, i64 0), i32* nonnull %1)
  %10 = load i32, i32* %1, align 4, !tbaa !5
  %11 = icmp sgt i32 %10, 0
  br i1 %11, label %12, label %84

12:                                               ; preds = %0, %80
  %13 = phi i32 [ %81, %80 ], [ 0, %0 ]
  %14 = call i32 (i8*, ...) @__isoc99_scanf(i8* getelementptr inbounds ([12 x i8], [12 x i8]* @.str.1, i64 0, i64 0), double* nonnull %2, double* nonnull %3, double* nonnull %4)
  %15 = load double, double* %3, align 8, !tbaa !9
  %16 = fmul double %15, %15
  %17 = load double, double* %2, align 8, !tbaa !9
  %18 = fmul double %17, 4.000000e+00
  %19 = load double, double* %4, align 8, !tbaa !9
  %20 = fmul double %18, %19
  %21 = fsub double %16, %20
  %22 = fcmp olt double %21, 0xBEB0C6F7A0B5ED8D
  br i1 %22, label %23, label %41

23:                                               ; preds = %12
  %24 = fneg double %15
  %25 = fmul double %17, 2.000000e+00
  %26 = fdiv double %24, %25
  %27 = fsub double %20, %16
  %28 = call double @sqrt(double %27) #4
  %29 = load double, double* %2, align 8, !tbaa !9
  %30 = fmul double %29, 2.000000e+00
  %31 = fdiv double %28, %30
  %32 = fcmp ogt double %26, 0xBEB0C6F7A0B5ED8D
  %33 = fcmp olt double %26, 0x3EB0C6F7A0B5ED8D
  %34 = and i1 %32, %33
  %35 = select i1 %34, double 0.000000e+00, double %26
  %36 = fcmp ogt double %31, 0xBEB0C6F7A0B5ED8D
  %37 = fcmp olt double %31, 0x3EB0C6F7A0B5ED8D
  %38 = and i1 %36, %37
  %39 = select i1 %38, double 0.000000e+00, double %31
  %40 = call i32 (i8*, ...) @printf(i8* nonnull dereferenceable(1) getelementptr inbounds ([29 x i8], [29 x i8]* @.str.2, i64 0, i64 0), double %35, double %39, double %35, double %39)
  br label %80

41:                                               ; preds = %12
  %42 = call double @sqrt(double %21) #4
  %43 = fsub double %42, %15
  %44 = load double, double* %2, align 8, !tbaa !9
  %45 = fmul double %44, 2.000000e+00
  %46 = fdiv double %43, %45
  %47 = load double, double* %3, align 8, !tbaa !9
  %48 = fneg double %47
  %49 = fmul double %47, %47
  %50 = fmul double %44, 4.000000e+00
  %51 = load double, double* %4, align 8, !tbaa !9
  %52 = fmul double %50, %51
  %53 = fsub double %49, %52
  %54 = call double @sqrt(double %53) #4
  %55 = fsub double %48, %54
  %56 = load double, double* %2, align 8, !tbaa !9
  %57 = fmul double %56, 2.000000e+00
  %58 = fdiv double %55, %57
  %59 = fcmp ogt double %46, 0xBEB0C6F7A0B5ED8D
  %60 = fcmp olt double %46, 0x3EB0C6F7A0B5ED8D
  %61 = and i1 %59, %60
  %62 = select i1 %61, double 0.000000e+00, double %46
  %63 = load double, double* %3, align 8, !tbaa !9
  %64 = fmul double %63, %63
  %65 = fmul double %56, 4.000000e+00
  %66 = load double, double* %4, align 8, !tbaa !9
  %67 = fmul double %65, %66
  %68 = fsub double %64, %67
  %69 = fcmp olt double %68, 0x3EB0C6F7A0B5ED8D
  %70 = fcmp ogt double %68, 0xBEB0C6F7A0B5ED8D
  %71 = and i1 %69, %70
  br i1 %71, label %72, label %74

72:                                               ; preds = %41
  %73 = call i32 (i8*, ...) @printf(i8* nonnull dereferenceable(1) getelementptr inbounds ([12 x i8], [12 x i8]* @.str.3, i64 0, i64 0), double %62)
  br label %80

74:                                               ; preds = %41
  %75 = fcmp ogt double %58, 0xBEB0C6F7A0B5ED8D
  %76 = fcmp olt double %58, 0x3EB0C6F7A0B5ED8D
  %77 = and i1 %75, %76
  %78 = select i1 %77, double 0.000000e+00, double %58
  %79 = call i32 (i8*, ...) @printf(i8* nonnull dereferenceable(1) getelementptr inbounds ([17 x i8], [17 x i8]* @.str.4, i64 0, i64 0), double %62, double %78)
  br label %80

80:                                               ; preds = %23, %74, %72
  %81 = add nuw nsw i32 %13, 1
  %82 = load i32, i32* %1, align 4, !tbaa !5
  %83 = icmp slt i32 %81, %82
  br i1 %83, label %12, label %84, !llvm.loop !11

84:                                               ; preds = %80, %0
  call void @llvm.lifetime.end.p0i8(i64 8, i8* nonnull %8) #4
  call void @llvm.lifetime.end.p0i8(i64 8, i8* nonnull %7) #4
  call void @llvm.lifetime.end.p0i8(i64 8, i8* nonnull %6) #4
  call void @llvm.lifetime.end.p0i8(i64 4, i8* nonnull %5) #4
  ret void
}

; Function Attrs: argmemonly mustprogress nofree nosync nounwind willreturn
declare void @llvm.lifetime.start.p0i8(i64 immarg, i8* nocapture) #1

; Function Attrs: nofree nounwind
declare noundef i32 @__isoc99_scanf(i8* nocapture noundef readonly, ...) local_unnamed_addr #2

; Function Attrs: mustprogress nofree nounwind willreturn
declare double @sqrt(double) local_unnamed_addr #3

; Function Attrs: nofree nounwind
declare noundef i32 @printf(i8* nocapture noundef readonly, ...) local_unnamed_addr #2

; Function Attrs: argmemonly mustprogress nofree nosync nounwind willreturn
declare void @llvm.lifetime.end.p0i8(i64 immarg, i8* nocapture) #1


!llvm.module.flags = !{!0, !1, !2, !3}
!llvm.ident = !{!4}

!0 = !{i32 1, !"wchar_size", i32 4}
!1 = !{i32 7, !"PIC Level", i32 2}
!2 = !{i32 7, !"PIE Level", i32 2}
!3 = !{i32 7, !"uwtable", i32 1}
!4 = !{!"clang version 13.0.0"}
!5 = !{!6, !6, i64 0}
!6 = !{!"int", !7, i64 0}
!7 = !{!"omnipotent char", !8, i64 0}
!8 = !{!"Simple C/C++ TBAA"}
!9 = !{!10, !10, i64 0}
!10 = !{!"double", !7, i64 0}
!11 = distinct !{!11, !12}
!12 = !{!"llvm.loop.mustprogress"}
